target datalayout = "e-m:e-p270:32:32-p271:32:32-p272:64:64-i64:64-i128:128-f80:128-n8:16:32:64-S128"
target triple = "x86_64-pc-linux-gnu"

; Function Attrs: nounwind uwtable
define dso_local i32 @gres_job_revalidate(ptr noundef %0) #0 {
  %2 = alloca i32, align 4
  %3 = alloca ptr, align 8
  store ptr %0, ptr %3, align 8
  %4 = load ptr, ptr %3, align 8
  %5 = icmp ne ptr %4, null
  br i1 %5, label %6, label %9

6:                                                ; preds = %1
  %7 = call i32 @slurm_select_cr_type()
  %8 = icmp eq i32 %7, 2
  br i1 %8, label %9, label %10

9:                                                ; preds = %6, %1
  store i32 0, ptr %2, align 4
  br label %16

10:                                               ; preds = %6
  %11 = load ptr, ptr %3, align 8
  %12 = call ptr @list_find_first(ptr noundef %11, ptr noundef @_find_gres_per_jst, ptr noundef null)
  %13 = icmp ne ptr %12, null
  br i1 %13, label %14, label %15

14:                                               ; preds = %10
  store i32 2122, ptr %2, align 4
  br label %16

15:                                               ; preds = %10
  store i32 0, ptr %2, align 4
  br label %16

16:                                               ; preds = %15, %14, %9
  %17 = load i32, ptr %2, align 4
  ret i32 %17
}