; Function Attrs: nounwind uwtable
define dso_local range(i32 0, 2123) i32 @gres_job_revalidate(ptr noundef %0) local_unnamed_addr #2 {
  %.not = icmp eq ptr %0, null
  br i1 %.not, label %7, label %2

2:                                                ; preds = %1
  %3 = tail call i32 @slurm_select_cr_type() #28
  %4 = icmp eq i32 %3, 2
  br i1 %4, label %7, label %5

5:                                                ; preds = %2
  %6 = tail call ptr @list_find_first(ptr noundef nonnull %0, ptr noundef nonnull @_find_gres_per_jst, ptr noundef null) #28
  %.not3 = icmp eq ptr %6, null
  %. = select i1 %.not3, i32 0, i32 2122
  br label %7

7:                                                ; preds = %5, %1, %2
  %.0 = phi i32 [ 0, %2 ], [ 0, %1 ], [ %., %5 ]
  ret i32 %.0
}